target datalayout = "e-m:e-p270:32:32-p271:32:32-p272:64:64-i64:64-i128:128-f80:128-n8:16:32:64-S128"
target triple = "x86_64-pc-linux-gnu"

%"struct.OpenColorIO_v2_5dev::GradingRGBMSW" = type { double, double, double, double, double, double }
%"struct.OpenColorIO_v2_5dev::GradingTone" = type { %"struct.OpenColorIO_v2_5dev::GradingRGBMSW", %"struct.OpenColorIO_v2_5dev::GradingRGBMSW", %"struct.OpenColorIO_v2_5dev::GradingRGBMSW", %"struct.OpenColorIO_v2_5dev::GradingRGBMSW", %"struct.OpenColorIO_v2_5dev::GradingRGBMSW", double }

; Function Attrs: mustprogress nounwind uwtable
define internal noundef zeroext i1 @_ZN19OpenColorIO_v2_5dev12_GLOBAL__N_110IsIdentityERKNS_13GradingRGBMSWE(ptr noundef nonnull align 8 dereferenceable(48) %0) #4 {
  %2 = alloca ptr, align 8
  store ptr %0, ptr %2, align 8, !tbaa !3
  %3 = load ptr, ptr %2, align 8, !tbaa !3
  %4 = getelementptr inbounds nuw %"struct.OpenColorIO_v2_5dev::GradingRGBMSW", ptr %3, i32 0, i32 0
  %5 = load double, ptr %4, align 8, !tbaa !8
  %6 = fcmp oeq double %5, 1.000000e+00
  br i1 %6, label %7, label %22

7:                                                ; preds = %1
  %8 = load ptr, ptr %2, align 8, !tbaa !3
  %9 = getelementptr inbounds nuw %"struct.OpenColorIO_v2_5dev::GradingRGBMSW", ptr %8, i32 0, i32 1
  %10 = load double, ptr %9, align 8, !tbaa !11
  %11 = fcmp oeq double %10, 1.000000e+00
  br i1 %11, label %12, label %22

12:                                               ; preds = %7
  %13 = load ptr, ptr %2, align 8, !tbaa !3
  %14 = getelementptr inbounds nuw %"struct.OpenColorIO_v2_5dev::GradingRGBMSW", ptr %13, i32 0, i32 2
  %15 = load double, ptr %14, align 8, !tbaa !12
  %16 = fcmp oeq double %15, 1.000000e+00
  br i1 %16, label %17, label %22

17:                                               ; preds = %12
  %18 = load ptr, ptr %2, align 8, !tbaa !3
  %19 = getelementptr inbounds nuw %"struct.OpenColorIO_v2_5dev::GradingRGBMSW", ptr %18, i32 0, i32 3
  %20 = load double, ptr %19, align 8, !tbaa !13
  %21 = fcmp oeq double %20, 1.000000e+00
  br label %22

22:                                               ; preds = %17, %12, %7, %1
  %23 = phi i1 [ false, %12 ], [ false, %7 ], [ false, %1 ], [ %21, %17 ]
  ret i1 %23
}

; Function Attrs: mustprogress uwtable
define hidden noundef zeroext i1 @_ZN19OpenColorIO_v2_5dev10IsIdentityERKNS_11GradingToneE(ptr noundef nonnull align 8 dereferenceable(248) %0) #5 {
  %2 = alloca ptr, align 8
  store ptr %0, ptr %2, align 8, !tbaa !16
  %3 = load ptr, ptr %2, align 8, !tbaa !16
  %4 = getelementptr inbounds nuw %"struct.OpenColorIO_v2_5dev::GradingTone", ptr %3, i32 0, i32 0
  %5 = call noundef zeroext i1 @_ZN19OpenColorIO_v2_5dev12_GLOBAL__N_110IsIdentityERKNS_13GradingRGBMSWE(ptr noundef nonnull align 8 dereferenceable(48) %4)
  br i1 %5, label %6, label %27

6:                                                ; preds = %1
  %7 = load ptr, ptr %2, align 8, !tbaa !16
  %8 = getelementptr inbounds nuw %"struct.OpenColorIO_v2_5dev::GradingTone", ptr %7, i32 0, i32 1
  %9 = call noundef zeroext i1 @_ZN19OpenColorIO_v2_5dev12_GLOBAL__N_110IsIdentityERKNS_13GradingRGBMSWE(ptr noundef nonnull align 8 dereferenceable(48) %8)
  br i1 %9, label %10, label %27

10:                                               ; preds = %6
  %11 = load ptr, ptr %2, align 8, !tbaa !16
  %12 = getelementptr inbounds nuw %"struct.OpenColorIO_v2_5dev::GradingTone", ptr %11, i32 0, i32 2
  %13 = call noundef zeroext i1 @_ZN19OpenColorIO_v2_5dev12_GLOBAL__N_110IsIdentityERKNS_13GradingRGBMSWE(ptr noundef nonnull align 8 dereferenceable(48) %12)
  br i1 %13, label %14, label %27

14:                                               ; preds = %10
  %15 = load ptr, ptr %2, align 8, !tbaa !16
  %16 = getelementptr inbounds nuw %"struct.OpenColorIO_v2_5dev::GradingTone", ptr %15, i32 0, i32 3
  %17 = call noundef zeroext i1 @_ZN19OpenColorIO_v2_5dev12_GLOBAL__N_110IsIdentityERKNS_13GradingRGBMSWE(ptr noundef nonnull align 8 dereferenceable(48) %16)
  br i1 %17, label %18, label %27

18:                                               ; preds = %14
  %19 = load ptr, ptr %2, align 8, !tbaa !16
  %20 = getelementptr inbounds nuw %"struct.OpenColorIO_v2_5dev::GradingTone", ptr %19, i32 0, i32 4
  %21 = call noundef zeroext i1 @_ZN19OpenColorIO_v2_5dev12_GLOBAL__N_110IsIdentityERKNS_13GradingRGBMSWE(ptr noundef nonnull align 8 dereferenceable(48) %20)
  br i1 %21, label %22, label %27

22:                                               ; preds = %18
  %23 = load ptr, ptr %2, align 8, !tbaa !16
  %24 = getelementptr inbounds nuw %"struct.OpenColorIO_v2_5dev::GradingTone", ptr %23, i32 0, i32 5
  %25 = load double, ptr %24, align 8, !tbaa !18
  %26 = fcmp oeq double %25, 1.000000e+00
  br label %27

27:                                               ; preds = %22, %18, %14, %10, %6, %1
  %28 = phi i1 [ false, %18 ], [ false, %14 ], [ false, %10 ], [ false, %6 ], [ false, %1 ], [ %26, %22 ]
  ret i1 %28
}