; Function Attrs: mustprogress nofree norecurse nosync nounwind willreturn memory(argmem: read) uwtable
define hidden noundef zeroext i1 @_ZN19OpenColorIO_v2_5dev10IsIdentityERKNS_11GradingToneE(ptr noundef nonnull readonly align 8 captures(none) dereferenceable(248) %0) local_unnamed_addr #3 {
  %2 = load double, ptr %0, align 8, !tbaa !3
  %3 = fcmp oeq double %2, 1.000000e+00
  %4 = getelementptr inbounds nuw i8, ptr %0, i64 8
  %5 = load double, ptr %4, align 8
  %6 = fcmp oeq double %5, 1.000000e+00
  %or.cond.i = select i1 %3, i1 %6, i1 false
  %7 = getelementptr inbounds nuw i8, ptr %0, i64 16
  %8 = load double, ptr %7, align 8
  %9 = fcmp oeq double %8, 1.000000e+00
  %or.cond8.i = select i1 %or.cond.i, i1 %9, i1 false
  %10 = getelementptr inbounds nuw i8, ptr %0, i64 24
  %11 = load double, ptr %10, align 8
  %12 = fcmp oeq double %11, 1.000000e+00
  %or.cond = select i1 %or.cond8.i, i1 %12, i1 false
  br i1 %or.cond, label %13, label %_ZN19OpenColorIO_v2_5dev12_GLOBAL__N_110IsIdentityERKNS_13GradingRGBMSWE.exit.thread

13:                                               ; preds = %1
  %14 = getelementptr inbounds nuw i8, ptr %0, i64 48
  %15 = load double, ptr %14, align 8, !tbaa !3
  %16 = fcmp oeq double %15, 1.000000e+00
  %17 = getelementptr inbounds nuw i8, ptr %0, i64 56
  %18 = load double, ptr %17, align 8
  %19 = fcmp oeq double %18, 1.000000e+00
  %or.cond.i6 = select i1 %16, i1 %19, i1 false
  %20 = getelementptr inbounds nuw i8, ptr %0, i64 64
  %21 = load double, ptr %20, align 8
  %22 = fcmp oeq double %21, 1.000000e+00
  %or.cond8.i7 = select i1 %or.cond.i6, i1 %22, i1 false
  %23 = getelementptr inbounds nuw i8, ptr %0, i64 72
  %24 = load double, ptr %23, align 8
  %25 = fcmp oeq double %24, 1.000000e+00
  %or.cond22 = select i1 %or.cond8.i7, i1 %25, i1 false
  br i1 %or.cond22, label %26, label %_ZN19OpenColorIO_v2_5dev12_GLOBAL__N_110IsIdentityERKNS_13GradingRGBMSWE.exit.thread

26:                                               ; preds = %13
  %27 = getelementptr inbounds nuw i8, ptr %0, i64 96
  %28 = load double, ptr %27, align 8, !tbaa !3
  %29 = fcmp oeq double %28, 1.000000e+00
  %30 = getelementptr inbounds nuw i8, ptr %0, i64 104
  %31 = load double, ptr %30, align 8
  %32 = fcmp oeq double %31, 1.000000e+00
  %or.cond.i9 = select i1 %29, i1 %32, i1 false
  %33 = getelementptr inbounds nuw i8, ptr %0, i64 112
  %34 = load double, ptr %33, align 8
  %35 = fcmp oeq double %34, 1.000000e+00
  %or.cond8.i10 = select i1 %or.cond.i9, i1 %35, i1 false
  %36 = getelementptr inbounds nuw i8, ptr %0, i64 120
  %37 = load double, ptr %36, align 8
  %38 = fcmp oeq double %37, 1.000000e+00
  %or.cond25 = select i1 %or.cond8.i10, i1 %38, i1 false
  br i1 %or.cond25, label %39, label %_ZN19OpenColorIO_v2_5dev12_GLOBAL__N_110IsIdentityERKNS_13GradingRGBMSWE.exit.thread

39:                                               ; preds = %26
  %40 = getelementptr inbounds nuw i8, ptr %0, i64 144
  %41 = load double, ptr %40, align 8, !tbaa !3
  %42 = fcmp oeq double %41, 1.000000e+00
  %43 = getelementptr inbounds nuw i8, ptr %0, i64 152
  %44 = load double, ptr %43, align 8
  %45 = fcmp oeq double %44, 1.000000e+00
  %or.cond.i12 = select i1 %42, i1 %45, i1 false
  %46 = getelementptr inbounds nuw i8, ptr %0, i64 160
  %47 = load double, ptr %46, align 8
  %48 = fcmp oeq double %47, 1.000000e+00
  %or.cond8.i13 = select i1 %or.cond.i12, i1 %48, i1 false
  %49 = getelementptr inbounds nuw i8, ptr %0, i64 168
  %50 = load double, ptr %49, align 8
  %51 = fcmp oeq double %50, 1.000000e+00
  %or.cond28 = select i1 %or.cond8.i13, i1 %51, i1 false
  br i1 %or.cond28, label %52, label %_ZN19OpenColorIO_v2_5dev12_GLOBAL__N_110IsIdentityERKNS_13GradingRGBMSWE.exit.thread

52:                                               ; preds = %39
  %53 = getelementptr inbounds nuw i8, ptr %0, i64 192
  %54 = load double, ptr %53, align 8, !tbaa !3
  %55 = fcmp oeq double %54, 1.000000e+00
  %56 = getelementptr inbounds nuw i8, ptr %0, i64 200
  %57 = load double, ptr %56, align 8
  %58 = fcmp oeq double %57, 1.000000e+00
  %or.cond.i15 = select i1 %55, i1 %58, i1 false
  %59 = getelementptr inbounds nuw i8, ptr %0, i64 208
  %60 = load double, ptr %59, align 8
  %61 = fcmp oeq double %60, 1.000000e+00
  %or.cond8.i16 = select i1 %or.cond.i15, i1 %61, i1 false
  %62 = getelementptr inbounds nuw i8, ptr %0, i64 216
  %63 = load double, ptr %62, align 8
  %64 = fcmp oeq double %63, 1.000000e+00
  %or.cond31 = select i1 %or.cond8.i16, i1 %64, i1 false
  br i1 %or.cond31, label %65, label %_ZN19OpenColorIO_v2_5dev12_GLOBAL__N_110IsIdentityERKNS_13GradingRGBMSWE.exit.thread

65:                                               ; preds = %52
  %66 = getelementptr inbounds nuw i8, ptr %0, i64 240
  %67 = load double, ptr %66, align 8, !tbaa !13
  %68 = fcmp oeq double %67, 1.000000e+00
  br label %_ZN19OpenColorIO_v2_5dev12_GLOBAL__N_110IsIdentityERKNS_13GradingRGBMSWE.exit.thread

_ZN19OpenColorIO_v2_5dev12_GLOBAL__N_110IsIdentityERKNS_13GradingRGBMSWE.exit.thread: ; preds = %52, %39, %26, %13, %1, %65
  %69 = phi i1 [ %68, %65 ], [ false, %1 ], [ false, %13 ], [ false, %26 ], [ false, %39 ], [ false, %52 ]
  ret i1 %69
}